; Function Attrs: nofree norecurse nosync nounwind memory(readwrite, inaccessiblemem: none) uwtable
define range(i32 0, 2) i32 @If_CutPerformCheck10(ptr noundef readnone captures(none) %0, ptr noundef readonly captures(none) %1, i32 noundef %2, i32 noundef %3, ptr noundef readnone captures(none) %4) local_unnamed_addr #5 {
  %6 = alloca [16 x i64], align 16
  call void @llvm.lifetime.start.p0(i64 128, ptr nonnull %6) #11
  %7 = icmp slt i32 %3, 7
  br i1 %7, label %If_Dec10Support.exit.thread, label %8

8:                                                ; preds = %5
  %9 = icmp slt i32 %2, 7
  %10 = add nsw i32 %2, -6
  %11 = shl nuw i32 1, %10
  %12 = select i1 %9, i32 1, i32 %11
  %13 = icmp sgt i32 %12, 0
  br i1 %13, label %.lr.ph.preheader.i, label %If_Dec10Copy.exit

.lr.ph.preheader.i:                               ; preds = %8
  %wide.trip.count.i = zext nneg i32 %12 to i64
  %14 = shl nuw nsw i64 %wide.trip.count.i, 3
  call void @llvm.memcpy.p0.p0.i64(ptr noundef nonnull align 16 dereferenceable(1) %6, ptr noundef nonnull align 8 dereferenceable(1) %1, i64 %14, i1 false), !tbaa !12
  br label %If_Dec10Copy.exit

If_Dec10Copy.exit:                                ; preds = %.lr.ph.preheader.i, %8
  %15 = add nsw i32 %3, -6
  %16 = shl nuw i32 1, %15
  %.not.i.i = icmp eq i32 %15, 31
  %smax55.i.i = tail call i32 @llvm.smax.i32(i32 %16, i32 1)
  %wide.trip.count56.i.i = zext nneg i32 %smax55.i.i to i64
  br i1 %.not.i.i, label %If_Dec10Support.exit.thread, label %.split.split.preheader.i

.split.split.preheader.i:                         ; preds = %If_Dec10Copy.exit
  %wide.trip.count.i12 = zext nneg i32 %3 to i64
  br label %.split.split.i

.split.split.i:                                   ; preds = %If_Dec10HasVar.exit.thread.i, %.split.split.preheader.i
  %indvars.iv.i13 = phi i64 [ 0, %.split.split.preheader.i ], [ %indvars.iv.next.i14, %If_Dec10HasVar.exit.thread.i ]
  %.021.i = phi i32 [ 0, %.split.split.preheader.i ], [ %50, %If_Dec10HasVar.exit.thread.i ]
  %17 = icmp samesign ult i64 %indvars.iv.i13, 6
  br i1 %17, label %.lr.ph.i.i, label %.preheader.lr.ph.i.i

.lr.ph.i.i:                                       ; preds = %.split.split.i
  %18 = trunc nuw nsw i64 %indvars.iv.i13 to i32
  %19 = shl nuw nsw i32 1, %18
  %20 = getelementptr inbounds nuw [6 x i64], ptr @Truth6, i64 0, i64 %indvars.iv.i13
  %21 = load i64, ptr %20, align 8, !tbaa !12
  %22 = xor i64 %21, -1
  %23 = zext nneg i32 %19 to i64
  br label %25

24:                                               ; preds = %25
  %indvars.iv.next53.i.i = add nuw nsw i64 %indvars.iv52.i.i, 1
  %exitcond57.not.i.i = icmp eq i64 %indvars.iv.next53.i.i, %wide.trip.count56.i.i
  br i1 %exitcond57.not.i.i, label %If_Dec10HasVar.exit.thread.i, label %25, !llvm.loop !46

25:                                               ; preds = %24, %.lr.ph.i.i
  %indvars.iv52.i.i = phi i64 [ 0, %.lr.ph.i.i ], [ %indvars.iv.next53.i.i, %24 ]
  %26 = getelementptr inbounds nuw i64, ptr %6, i64 %indvars.iv52.i.i
  %27 = load i64, ptr %26, align 8, !tbaa !12
  %28 = and i64 %27, %22
  %29 = and i64 %27, %21
  %30 = lshr i64 %29, %23
  %.not36.i.i = icmp eq i64 %28, %30
  br i1 %.not36.i.i, label %24, label %If_Dec10HasVar.exit.thread14.i

.preheader.lr.ph.i.i:                             ; preds = %.split.split.i
  %31 = add nsw i64 %indvars.iv.i13, -6
  %32 = icmp eq i64 %31, 31
  %33 = trunc nsw i64 %31 to i32
  %34 = shl i32 2, %33
  %35 = sext i32 %34 to i64
  br i1 %32, label %If_Dec10HasVar.exit.i, label %.preheader.us.preheader.i.i

.preheader.us.preheader.i.i:                      ; preds = %.preheader.lr.ph.i.i
  %36 = shl nuw i32 1, %33
  %37 = sext i32 %36 to i64
  %smax.i.i = tail call i32 @llvm.smax.i32(i32 %36, i32 1)
  %wide.trip.count.i.i = zext nneg i32 %smax.i.i to i64
  br label %.preheader.us.i.i

.preheader.us.i.i:                                ; preds = %._crit_edge.us.i.i, %.preheader.us.preheader.i.i
  %.02841.us.i.i = phi i32 [ %44, %._crit_edge.us.i.i ], [ 0, %.preheader.us.preheader.i.i ]
  %.03040.us.i.i = phi ptr [ %43, %._crit_edge.us.i.i ], [ %6, %.preheader.us.preheader.i.i ]
  %invariant.gep.i.i = getelementptr i64, ptr %.03040.us.i.i, i64 %37
  br label %39

38:                                               ; preds = %39
  %indvars.iv.next.i.i = add nuw nsw i64 %indvars.iv.i.i, 1
  %exitcond.not.i.i = icmp eq i64 %indvars.iv.next.i.i, %wide.trip.count.i.i
  br i1 %exitcond.not.i.i, label %._crit_edge.us.i.i, label %39, !llvm.loop !47

39:                                               ; preds = %38, %.preheader.us.i.i
  %indvars.iv.i.i = phi i64 [ 0, %.preheader.us.i.i ], [ %indvars.iv.next.i.i, %38 ]
  %40 = getelementptr inbounds nuw i64, ptr %.03040.us.i.i, i64 %indvars.iv.i.i
  %41 = load i64, ptr %40, align 8, !tbaa !12
  %gep.i.i = getelementptr i64, ptr %invariant.gep.i.i, i64 %indvars.iv.i.i
  %42 = load i64, ptr %gep.i.i, align 8, !tbaa !12
  %.not.us.i.i = icmp eq i64 %41, %42
  br i1 %.not.us.i.i, label %38, label %If_Dec10HasVar.exit.thread14.loopexit.i

._crit_edge.us.i.i:                               ; preds = %38
  %43 = getelementptr inbounds i64, ptr %.03040.us.i.i, i64 %35
  %44 = add nsw i32 %.02841.us.i.i, %34
  %45 = icmp slt i32 %44, %16
  br i1 %45, label %.preheader.us.i.i, label %If_Dec10HasVar.exit.thread.i, !llvm.loop !48

If_Dec10HasVar.exit.thread14.loopexit.i:          ; preds = %39
  %.pre.i = trunc nuw nsw i64 %indvars.iv.i13 to i32
  %.pre48.i = shl nuw i32 1, %.pre.i
  br label %If_Dec10HasVar.exit.thread14.i

If_Dec10HasVar.exit.thread14.i:                   ; preds = %25, %If_Dec10HasVar.exit.thread14.loopexit.i
  %.pre-phi49.i = phi i32 [ %.pre48.i, %If_Dec10HasVar.exit.thread14.loopexit.i ], [ %19, %25 ]
  %46 = or i32 %.pre-phi49.i, %.021.i
  br label %If_Dec10HasVar.exit.thread.i

If_Dec10HasVar.exit.i:                            ; preds = %.preheader.lr.ph.i.i
  %47 = trunc nuw nsw i64 %indvars.iv.i13 to i32
  %48 = shl nuw nsw i32 1, %47
  %49 = or i32 %48, %.021.i
  br label %If_Dec10HasVar.exit.thread.i

If_Dec10HasVar.exit.thread.i:                     ; preds = %._crit_edge.us.i.i, %24, %If_Dec10HasVar.exit.i, %If_Dec10HasVar.exit.thread14.i
  %50 = phi i32 [ %49, %If_Dec10HasVar.exit.i ], [ %46, %If_Dec10HasVar.exit.thread14.i ], [ %.021.i, %24 ], [ %.021.i, %._crit_edge.us.i.i ]
  %indvars.iv.next.i14 = add nuw nsw i64 %indvars.iv.i13, 1
  %exitcond.not.i15 = icmp eq i64 %indvars.iv.next.i14, %wide.trip.count.i12
  br i1 %exitcond.not.i15, label %If_Dec10Support.exit, label %.split.split.i, !llvm.loop !49

If_Dec10Support.exit:                             ; preds = %If_Dec10HasVar.exit.thread.i
  %.not = icmp eq i32 %50, 0
  br i1 %.not, label %If_Dec10Support.exit.thread, label %51

51:                                               ; preds = %If_Dec10Support.exit
  %52 = add nsw i32 %50, 1
  %53 = and i32 %52, %50
  %.not18 = icmp eq i32 %53, 0
  br i1 %.not18, label %54, label %If_Dec10Support.exit.thread

54:                                               ; preds = %51
  %55 = call i32 @If_Dec10Perform(ptr noundef nonnull %6, i32 noundef %3, i32 poison)
  br label %If_Dec10Support.exit.thread

If_Dec10Support.exit.thread:                      ; preds = %If_Dec10Copy.exit, %54, %If_Dec10Support.exit, %51, %5
  %.0 = phi i32 [ 1, %5 ], [ 0, %51 ], [ 0, %If_Dec10Support.exit ], [ %55, %54 ], [ 0, %If_Dec10Copy.exit ]
  call void @llvm.lifetime.end.p0(i64 128, ptr nonnull %6) #11
  ret i32 %.0
}